; Function Attrs: nounwind uwtable
define internal range(i32 -1, 1) i32 @H5G__obj_compact_to_dense_cb(ptr noundef %0, i32 %1, ptr noundef readonly captures(none) %2) #0 {
  %4 = load i8, ptr @H5G_init_g, align 1, !tbaa !3, !range !7, !noundef !8
  %5 = trunc nuw i8 %4 to i1
  %6 = load i8, ptr @H5_libterm_g, align 1, !range !7
  %7 = trunc nuw i8 %6 to i1
  %8 = xor i1 %7, true
  %9 = select i1 %5, i1 true, i1 %8
  br i1 %9, label %10, label %20, !prof !9

10:                                               ; preds = %3
  %11 = load ptr, ptr %2, align 8, !tbaa !48
  %12 = getelementptr inbounds nuw i8, ptr %2, i64 16
  %13 = load ptr, ptr %12, align 8, !tbaa !52
  %14 = tail call i32 @H5G__dense_insert(ptr noundef %11, ptr noundef %13, ptr noundef %0) #5
  %15 = icmp slt i32 %14, 0
  br i1 %15, label %16, label %20

16:                                               ; preds = %10
  %17 = load i64, ptr @H5E_SYM_g, align 8, !tbaa !14
  %18 = load i64, ptr @H5E_CANTINSERT_g, align 8, !tbaa !14
  %19 = tail call i32 (ptr, ptr, i32, i64, i64, ptr, ...) @H5E_printf_stack(ptr noundef nonnull @.str, ptr noundef nonnull @__func__.H5G__obj_compact_to_dense_cb, i32 noundef 370, i64 noundef %17, i64 noundef %18, ptr noundef nonnull @.str.29) #5
  br label %20

20:                                               ; preds = %16, %10, %3
  %.0 = phi i32 [ -1, %16 ], [ 0, %10 ], [ 0, %3 ]
  ret i32 %.0
}